target datalayout = "e-m:e-p270:32:32-p271:32:32-p272:64:64-i64:64-i128:128-f80:128-n8:16:32:64-S128"
target triple = "x86_64-pc-linux-gnu"

%struct.RsaKey = type { %struct.sp_int, %struct.sp_int, %struct.sp_int, %struct.sp_int, %struct.sp_int, %struct.sp_int, %struct.sp_int, %struct.sp_int, ptr, ptr, i32, i32, i32, ptr, i8 }
%struct.sp_int = type { i16, i16, [129 x i64] }

; Function Attrs: inlinehint nounwind uwtable
define internal void @ForceZero(ptr noundef %0, i32 noundef %1) #7 {
  %3 = alloca ptr, align 8
  %4 = alloca i32, align 4
  %5 = alloca ptr, align 8
  %6 = alloca ptr, align 8
  %7 = alloca i32, align 4
  store ptr %0, ptr %3, align 8, !tbaa !3
  store i32 %1, ptr %4, align 4, !tbaa !7
  call void @llvm.lifetime.start.p0(i64 8, ptr %5) #8
  %8 = load ptr, ptr %3, align 8, !tbaa !3
  store ptr %8, ptr %5, align 8, !tbaa !27
  call void @llvm.lifetime.start.p0(i64 8, ptr %6) #8
  call void @llvm.lifetime.start.p0(i64 4, ptr %7) #8
  %9 = load ptr, ptr %5, align 8, !tbaa !27
  %10 = ptrtoint ptr %9 to i64
  %11 = and i64 %10, 7
  %12 = sub i64 8, %11
  %13 = and i64 %12, 7
  %14 = trunc i64 %13 to i32
  store i32 %14, ptr %7, align 4, !tbaa !7
  %15 = load i32, ptr %4, align 4, !tbaa !7
  %16 = load i32, ptr %7, align 4, !tbaa !7
  %17 = icmp ult i32 %15, %16
  br i1 %17, label %18, label %20

18:                                               ; preds = %2
  %19 = load i32, ptr %4, align 4, !tbaa !7
  store i32 %19, ptr %7, align 4, !tbaa !7
  br label %20

20:                                               ; preds = %18, %2
  %21 = load i32, ptr %7, align 4, !tbaa !7
  %22 = load i32, ptr %4, align 4, !tbaa !7
  %23 = sub i32 %22, %21
  store i32 %23, ptr %4, align 4, !tbaa !7
  br label %24

24:                                               ; preds = %28, %20
  %25 = load i32, ptr %7, align 4, !tbaa !7
  %26 = add i32 %25, -1
  store i32 %26, ptr %7, align 4, !tbaa !7
  %27 = icmp ne i32 %25, 0
  br i1 %27, label %28, label %31

28:                                               ; preds = %24
  %29 = load ptr, ptr %5, align 8, !tbaa !27
  %30 = getelementptr inbounds nuw i8, ptr %29, i32 1
  store ptr %30, ptr %5, align 8, !tbaa !27
  store volatile i8 0, ptr %29, align 1, !tbaa !28
  br label %24, !llvm.loop !43

31:                                               ; preds = %24
  %32 = load ptr, ptr %5, align 8, !tbaa !27
  store ptr %32, ptr %6, align 8, !tbaa !44
  br label %33

33:                                               ; preds = %40, %31
  %34 = load i32, ptr %4, align 4, !tbaa !7
  %35 = zext i32 %34 to i64
  %36 = icmp uge i64 %35, 8
  br i1 %36, label %37, label %43

37:                                               ; preds = %33
  %38 = load ptr, ptr %6, align 8, !tbaa !44
  %39 = getelementptr inbounds nuw i64, ptr %38, i32 1
  store ptr %39, ptr %6, align 8, !tbaa !44
  store volatile i64 0, ptr %38, align 8, !tbaa !46
  br label %40

40:                                               ; preds = %37
  %41 = load i32, ptr %4, align 4, !tbaa !7
  %42 = sub i32 %41, 8
  store i32 %42, ptr %4, align 4, !tbaa !7
  br label %33, !llvm.loop !48

43:                                               ; preds = %33
  %44 = load ptr, ptr %6, align 8, !tbaa !44
  store ptr %44, ptr %5, align 8, !tbaa !27
  br label %45

45:                                               ; preds = %49, %43
  %46 = load i32, ptr %4, align 4, !tbaa !7
  %47 = add i32 %46, -1
  store i32 %47, ptr %4, align 4, !tbaa !7
  %48 = icmp ne i32 %46, 0
  br i1 %48, label %49, label %52

49:                                               ; preds = %45
  %50 = load ptr, ptr %5, align 8, !tbaa !27
  %51 = getelementptr inbounds nuw i8, ptr %50, i32 1
  store ptr %51, ptr %5, align 8, !tbaa !27
  store volatile i8 0, ptr %50, align 1, !tbaa !28
  br label %45, !llvm.loop !49

52:                                               ; preds = %45
  call void @llvm.lifetime.end.p0(i64 4, ptr %7) #8
  call void @llvm.lifetime.end.p0(i64 8, ptr %6) #8
  call void @llvm.lifetime.end.p0(i64 8, ptr %5) #8
  ret void
}

; Function Attrs: nounwind uwtable
define internal void @wc_RsaCleanup(ptr noundef %0) #0 {
  %2 = alloca ptr, align 8
  %3 = alloca ptr, align 8
  store ptr %0, ptr %2, align 8, !tbaa !11
  %4 = load ptr, ptr %2, align 8, !tbaa !11
  %5 = icmp ne ptr %4, null
  br i1 %5, label %6, label %56

6:                                                ; preds = %1
  %7 = load ptr, ptr %2, align 8, !tbaa !11
  %8 = getelementptr inbounds nuw %struct.RsaKey, ptr %7, i32 0, i32 9
  %9 = load ptr, ptr %8, align 8, !tbaa !22
  %10 = icmp ne ptr %9, null
  br i1 %10, label %11, label %33

11:                                               ; preds = %6
  %12 = load ptr, ptr %2, align 8, !tbaa !11
  %13 = getelementptr inbounds nuw %struct.RsaKey, ptr %12, i32 0, i32 12
  %14 = load i32, ptr %13, align 8, !tbaa !23
  %15 = icmp ugt i32 %14, 0
  br i1 %15, label %16, label %33

16:                                               ; preds = %11
  %17 = load ptr, ptr %2, align 8, !tbaa !11
  %18 = getelementptr inbounds nuw %struct.RsaKey, ptr %17, i32 0, i32 10
  %19 = load i32, ptr %18, align 8, !tbaa !13
  %20 = icmp eq i32 %19, 3
  br i1 %20, label %26, label %21

21:                                               ; preds = %16
  %22 = load ptr, ptr %2, align 8, !tbaa !11
  %23 = getelementptr inbounds nuw %struct.RsaKey, ptr %22, i32 0, i32 10
  %24 = load i32, ptr %23, align 8, !tbaa !13
  %25 = icmp eq i32 %24, 2
  br i1 %25, label %26, label %33

26:                                               ; preds = %21, %16
  %27 = load ptr, ptr %2, align 8, !tbaa !11
  %28 = getelementptr inbounds nuw %struct.RsaKey, ptr %27, i32 0, i32 9
  %29 = load ptr, ptr %28, align 8, !tbaa !22
  %30 = load ptr, ptr %2, align 8, !tbaa !11
  %31 = getelementptr inbounds nuw %struct.RsaKey, ptr %30, i32 0, i32 12
  %32 = load i32, ptr %31, align 8, !tbaa !23
  call void @ForceZero(ptr noundef %29, i32 noundef %32)
  br label %33

33:                                               ; preds = %26, %21, %11, %6
  %34 = load ptr, ptr %2, align 8, !tbaa !11
  %35 = getelementptr inbounds nuw %struct.RsaKey, ptr %34, i32 0, i32 14
  %36 = load i8, ptr %35, align 8, !tbaa !21
  %37 = icmp ne i8 %36, 0
  br i1 %37, label %38, label %51

38:                                               ; preds = %33
  br label %39

39:                                               ; preds = %38
  call void @llvm.lifetime.start.p0(i64 8, ptr %3) #8
  %40 = load ptr, ptr %2, align 8, !tbaa !11
  %41 = getelementptr inbounds nuw %struct.RsaKey, ptr %40, i32 0, i32 9
  %42 = load ptr, ptr %41, align 8, !tbaa !22
  store ptr %42, ptr %3, align 8, !tbaa !3
  %43 = load ptr, ptr %3, align 8, !tbaa !3
  %44 = icmp ne ptr %43, null
  br i1 %44, label %45, label %47

45:                                               ; preds = %39
  %46 = load ptr, ptr %3, align 8, !tbaa !3
  call void @wolfSSL_Free(ptr noundef %46)
  br label %47

47:                                               ; preds = %45, %39
  call void @llvm.lifetime.end.p0(i64 8, ptr %3) #8
  br label %48

48:                                               ; preds = %47
  %49 = load ptr, ptr %2, align 8, !tbaa !11
  %50 = getelementptr inbounds nuw %struct.RsaKey, ptr %49, i32 0, i32 14
  store i8 0, ptr %50, align 8, !tbaa !21
  br label %51

51:                                               ; preds = %48, %33
  %52 = load ptr, ptr %2, align 8, !tbaa !11
  %53 = getelementptr inbounds nuw %struct.RsaKey, ptr %52, i32 0, i32 9
  store ptr null, ptr %53, align 8, !tbaa !22
  %54 = load ptr, ptr %2, align 8, !tbaa !11
  %55 = getelementptr inbounds nuw %struct.RsaKey, ptr %54, i32 0, i32 12
  store i32 0, ptr %55, align 8, !tbaa !23
  br label %56

56:                                               ; preds = %51, %1
  ret void
}

; Function Attrs: nounwind uwtable
define i32 @wc_FreeRsaKey(ptr noundef %0) #0 {
  %2 = alloca i32, align 4
  %3 = alloca ptr, align 8
  %4 = alloca i32, align 4
  %5 = alloca i32, align 4
  store ptr %0, ptr %3, align 8, !tbaa !11
  call void @llvm.lifetime.start.p0(i64 4, ptr %4) #8
  store i32 0, ptr %4, align 4, !tbaa !7
  %6 = load ptr, ptr %3, align 8, !tbaa !11
  %7 = icmp eq ptr %6, null
  br i1 %7, label %8, label %9

8:                                                ; preds = %1
  store i32 -173, ptr %2, align 4
  store i32 1, ptr %5, align 4
  br label %47

9:                                                ; preds = %1
  %10 = load ptr, ptr %3, align 8, !tbaa !11
  call void @wc_RsaCleanup(ptr noundef %10)
  %11 = load ptr, ptr %3, align 8, !tbaa !11
  %12 = getelementptr inbounds nuw %struct.RsaKey, ptr %11, i32 0, i32 10
  %13 = load i32, ptr %12, align 8, !tbaa !13
  %14 = icmp eq i32 %13, 1
  br i1 %14, label %15, label %28

15:                                               ; preds = %9
  %16 = load ptr, ptr %3, align 8, !tbaa !11
  %17 = getelementptr inbounds nuw %struct.RsaKey, ptr %16, i32 0, i32 7
  call void @sp_forcezero(ptr noundef %17)
  %18 = load ptr, ptr %3, align 8, !tbaa !11
  %19 = getelementptr inbounds nuw %struct.RsaKey, ptr %18, i32 0, i32 6
  call void @sp_forcezero(ptr noundef %19)
  %20 = load ptr, ptr %3, align 8, !tbaa !11
  %21 = getelementptr inbounds nuw %struct.RsaKey, ptr %20, i32 0, i32 5
  call void @sp_forcezero(ptr noundef %21)
  %22 = load ptr, ptr %3, align 8, !tbaa !11
  %23 = getelementptr inbounds nuw %struct.RsaKey, ptr %22, i32 0, i32 4
  call void @sp_forcezero(ptr noundef %23)
  %24 = load ptr, ptr %3, align 8, !tbaa !11
  %25 = getelementptr inbounds nuw %struct.RsaKey, ptr %24, i32 0, i32 3
  call void @sp_forcezero(ptr noundef %25)
  %26 = load ptr, ptr %3, align 8, !tbaa !11
  %27 = getelementptr inbounds nuw %struct.RsaKey, ptr %26, i32 0, i32 2
  call void @sp_forcezero(ptr noundef %27)
  br label %41

28:                                               ; preds = %9
  %29 = load ptr, ptr %3, align 8, !tbaa !11
  %30 = getelementptr inbounds nuw %struct.RsaKey, ptr %29, i32 0, i32 7
  call void @sp_clear(ptr noundef %30)
  %31 = load ptr, ptr %3, align 8, !tbaa !11
  %32 = getelementptr inbounds nuw %struct.RsaKey, ptr %31, i32 0, i32 6
  call void @sp_clear(ptr noundef %32)
  %33 = load ptr, ptr %3, align 8, !tbaa !11
  %34 = getelementptr inbounds nuw %struct.RsaKey, ptr %33, i32 0, i32 5
  call void @sp_clear(ptr noundef %34)
  %35 = load ptr, ptr %3, align 8, !tbaa !11
  %36 = getelementptr inbounds nuw %struct.RsaKey, ptr %35, i32 0, i32 4
  call void @sp_clear(ptr noundef %36)
  %37 = load ptr, ptr %3, align 8, !tbaa !11
  %38 = getelementptr inbounds nuw %struct.RsaKey, ptr %37, i32 0, i32 3
  call void @sp_clear(ptr noundef %38)
  %39 = load ptr, ptr %3, align 8, !tbaa !11
  %40 = getelementptr inbounds nuw %struct.RsaKey, ptr %39, i32 0, i32 2
  call void @sp_clear(ptr noundef %40)
  br label %41

41:                                               ; preds = %28, %15
  %42 = load ptr, ptr %3, align 8, !tbaa !11
  %43 = getelementptr inbounds nuw %struct.RsaKey, ptr %42, i32 0, i32 1
  call void @sp_clear(ptr noundef %43)
  %44 = load ptr, ptr %3, align 8, !tbaa !11
  %45 = getelementptr inbounds nuw %struct.RsaKey, ptr %44, i32 0, i32 0
  call void @sp_clear(ptr noundef %45)
  %46 = load i32, ptr %4, align 4, !tbaa !7
  store i32 %46, ptr %2, align 4
  store i32 1, ptr %5, align 4
  br label %47

47:                                               ; preds = %41, %8
  call void @llvm.lifetime.end.p0(i64 4, ptr %4) #8
  %48 = load i32, ptr %2, align 4
  ret i32 %48
}