; Function Attrs: nounwind uwtable
define range(i32 -173, 1) i32 @wc_FreeRsaKey(ptr noundef %0) local_unnamed_addr #0 {
  %2 = icmp eq ptr %0, null
  br i1 %2, label %47, label %3

3:                                                ; preds = %1
  %4 = getelementptr inbounds nuw i8, ptr %0, i64 8328
  %5 = load ptr, ptr %4, align 8, !tbaa !16
  %.not.i = icmp eq ptr %5, null
  br i1 %.not.i, label %ForceZero.exit.i, label %6

6:                                                ; preds = %3
  %7 = getelementptr inbounds nuw i8, ptr %0, i64 8344
  %8 = load i32, ptr %7, align 8, !tbaa !19
  %.not16.i = icmp eq i32 %8, 0
  br i1 %.not16.i, label %ForceZero.exit.i, label %9

9:                                                ; preds = %6
  %10 = getelementptr inbounds nuw i8, ptr %0, i64 8336
  %11 = load i32, ptr %10, align 8, !tbaa !3
  %12 = and i32 %11, -2
  %switch.i = icmp eq i32 %12, 2
  br i1 %switch.i, label %13, label %ForceZero.exit.i

13:                                               ; preds = %9
  %14 = ptrtoint ptr %5 to i64
  %15 = trunc i64 %14 to i32
  %16 = sub i32 0, %15
  %17 = and i32 %16, 7
  %spec.select.i.i = tail call i32 @llvm.umin.i32(i32 %8, i32 %17)
  %18 = sub i32 %8, %spec.select.i.i
  %.not24.i.i = icmp eq i32 %17, 0
  br i1 %.not24.i.i, label %.preheader23.i.i, label %.lr.ph.i.i

.preheader23.i.i:                                 ; preds = %.lr.ph.i.i, %13
  %.016.lcssa.i.i = phi ptr [ %5, %13 ], [ %21, %.lr.ph.i.i ]
  %19 = icmp ugt i32 %18, 7
  br i1 %19, label %.lr.ph29.i.i, label %.preheader.i.i

.lr.ph.i.i:                                       ; preds = %13, %.lr.ph.i.i
  %.126.i.i = phi i32 [ %20, %.lr.ph.i.i ], [ %spec.select.i.i, %13 ]
  %.01625.i.i = phi ptr [ %21, %.lr.ph.i.i ], [ %5, %13 ]
  %20 = add nsw i32 %.126.i.i, -1
  %21 = getelementptr inbounds nuw i8, ptr %.01625.i.i, i64 1
  store volatile i8 0, ptr %.01625.i.i, align 1, !tbaa !20
  %.not.i.i = icmp eq i32 %20, 0
  br i1 %.not.i.i, label %.preheader23.i.i, label %.lr.ph.i.i, !llvm.loop !21

.preheader.i.i:                                   ; preds = %.lr.ph29.i.i, %.preheader23.i.i
  %.018.lcssa.i.i = phi i32 [ %18, %.preheader23.i.i ], [ %23, %.lr.ph29.i.i ]
  %.015.lcssa.i.i = phi ptr [ %.016.lcssa.i.i, %.preheader23.i.i ], [ %22, %.lr.ph29.i.i ]
  %.not2232.i.i = icmp eq i32 %.018.lcssa.i.i, 0
  br i1 %.not2232.i.i, label %ForceZero.exit.i, label %.lr.ph35.i.i

.lr.ph29.i.i:                                     ; preds = %.preheader23.i.i, %.lr.ph29.i.i
  %.01528.i.i = phi ptr [ %22, %.lr.ph29.i.i ], [ %.016.lcssa.i.i, %.preheader23.i.i ]
  %.01827.i.i = phi i32 [ %23, %.lr.ph29.i.i ], [ %18, %.preheader23.i.i ]
  %22 = getelementptr inbounds nuw i8, ptr %.01528.i.i, i64 8
  store volatile i64 0, ptr %.01528.i.i, align 8, !tbaa !23
  %23 = add i32 %.01827.i.i, -8
  %24 = icmp ugt i32 %23, 7
  br i1 %24, label %.lr.ph29.i.i, label %.preheader.i.i, !llvm.loop !25

.lr.ph35.i.i:                                     ; preds = %.preheader.i.i, %.lr.ph35.i.i
  %.11734.i.i = phi ptr [ %26, %.lr.ph35.i.i ], [ %.015.lcssa.i.i, %.preheader.i.i ]
  %.11933.i.i = phi i32 [ %25, %.lr.ph35.i.i ], [ %.018.lcssa.i.i, %.preheader.i.i ]
  %25 = add i32 %.11933.i.i, -1
  %26 = getelementptr inbounds nuw i8, ptr %.11734.i.i, i64 1
  store volatile i8 0, ptr %.11734.i.i, align 1, !tbaa !20
  %.not22.i.i = icmp eq i32 %25, 0
  br i1 %.not22.i.i, label %ForceZero.exit.i, label %.lr.ph35.i.i, !llvm.loop !26

ForceZero.exit.i:                                 ; preds = %.lr.ph35.i.i, %.preheader.i.i, %9, %6, %3
  %27 = getelementptr inbounds nuw i8, ptr %0, i64 8360
  %28 = load i8, ptr %27, align 8, !tbaa !27
  %.not17.i = icmp eq i8 %28, 0
  br i1 %.not17.i, label %wc_RsaCleanup.exit, label %29

29:                                               ; preds = %ForceZero.exit.i
  %30 = load ptr, ptr %4, align 8, !tbaa !16
  %.not18.i = icmp eq ptr %30, null
  br i1 %.not18.i, label %32, label %31

31:                                               ; preds = %29
  tail call void @wolfSSL_Free(ptr noundef nonnull %30) #12
  br label %32

32:                                               ; preds = %31, %29
  store i8 0, ptr %27, align 8, !tbaa !27
  br label %wc_RsaCleanup.exit

wc_RsaCleanup.exit:                               ; preds = %ForceZero.exit.i, %32
  store ptr null, ptr %4, align 8, !tbaa !16
  %33 = getelementptr inbounds nuw i8, ptr %0, i64 8344
  store i32 0, ptr %33, align 8, !tbaa !19
  %34 = getelementptr inbounds nuw i8, ptr %0, i64 8336
  %35 = load i32, ptr %34, align 8, !tbaa !3
  %36 = icmp eq i32 %35, 1
  %37 = getelementptr inbounds nuw i8, ptr %0, i64 7280
  %38 = getelementptr inbounds nuw i8, ptr %0, i64 6240
  %39 = getelementptr inbounds nuw i8, ptr %0, i64 5200
  %40 = getelementptr inbounds nuw i8, ptr %0, i64 4160
  %41 = getelementptr inbounds nuw i8, ptr %0, i64 3120
  %42 = getelementptr inbounds nuw i8, ptr %0, i64 2080
  br i1 %36, label %43, label %44

43:                                               ; preds = %wc_RsaCleanup.exit
  tail call void @sp_forcezero(ptr noundef nonnull %37) #12
  tail call void @sp_forcezero(ptr noundef nonnull %38) #12
  tail call void @sp_forcezero(ptr noundef nonnull %39) #12
  tail call void @sp_forcezero(ptr noundef nonnull %40) #12
  tail call void @sp_forcezero(ptr noundef nonnull %41) #12
  tail call void @sp_forcezero(ptr noundef nonnull %42) #12
  br label %45

44:                                               ; preds = %wc_RsaCleanup.exit
  tail call void @sp_clear(ptr noundef nonnull %37) #12
  tail call void @sp_clear(ptr noundef nonnull %38) #12
  tail call void @sp_clear(ptr noundef nonnull %39) #12
  tail call void @sp_clear(ptr noundef nonnull %40) #12
  tail call void @sp_clear(ptr noundef nonnull %41) #12
  tail call void @sp_clear(ptr noundef nonnull %42) #12
  br label %45

45:                                               ; preds = %44, %43
  %46 = getelementptr inbounds nuw i8, ptr %0, i64 1040
  tail call void @sp_clear(ptr noundef nonnull %46) #12
  tail call void @sp_clear(ptr noundef nonnull %0) #12
  br label %47

47:                                               ; preds = %1, %45
  %.0 = phi i32 [ 0, %45 ], [ -173, %1 ]
  ret i32 %.0
}